; Function Attrs: mustprogress uwtable
define noundef zeroext i1 @_ZN6google8protobuf2io16ArrayInputStream4SkipEi(ptr nocapture noundef nonnull align 8 dereferenceable(32) %this, i32 noundef %count) unnamed_addr #5 align 2 personality ptr @__gxx_personality_v0 {
entry:
  %ref.tmp = alloca %"class.absl::lts_20230802::log_internal::LogMessageFatal", align 8
  %cmp.not.i.i = icmp slt i32 %count, 0
  br i1 %cmp.not.i.i, label %while.body, label %while.end

while.body:                                       ; preds = %entry
  %conv.i.i = sext i32 %count to i64
  %call.i.i = tail call noundef nonnull ptr @_ZN4absl12lts_2023080212log_internal17MakeCheckOpStringIllEEPNSt7__cxx1112basic_stringIcSt11char_traitsIcESaIcEEET_T0_PKc(i64 noundef %conv.i.i, i64 noundef 0, ptr noundef nonnull @.str.4)
  %call4 = tail call { i64, ptr } @_ZNKSt7__cxx1112basic_stringIcSt11char_traitsIcESaIcEEcvSt17basic_string_viewIcS2_EEv(ptr noundef nonnull align 8 dereferenceable(32) %call.i.i) #25
  %0 = extractvalue { i64, ptr } %call4, 0
  %1 = extractvalue { i64, ptr } %call4, 1
  call void @_ZN4absl12lts_2023080212log_internal15LogMessageFatalC1EPKciSt17basic_string_viewIcSt11char_traitsIcEE(ptr noundef nonnull align 8 dereferenceable(16) %ref.tmp, ptr noundef nonnull @.str.1, i32 noundef 71, i64 %0, ptr %1) #26
  call void @_ZN4absl12lts_2023080212log_internal15LogMessageFatalD1Ev(ptr noundef nonnull align 8 dereferenceable(16) %ref.tmp) #27
  unreachable

while.end:                                        ; preds = %entry
  %last_returned_size_ = getelementptr inbounds i8, ptr %this, i64 28
  store i32 0, ptr %last_returned_size_, align 4
  %size_ = getelementptr inbounds i8, ptr %this, i64 16
  %2 = load i32, ptr %size_, align 8
  %position_ = getelementptr inbounds i8, ptr %this, i64 24
  %3 = load i32, ptr %position_, align 8
  %sub = sub nsw i32 %2, %3
  %cmp = icmp sge i32 %sub, %count
  %add = add nsw i32 %3, %count
  %storemerge = select i1 %cmp, i32 %add, i32 %2
  store i32 %storemerge, ptr %position_, align 8
  ret i1 %cmp
}